target datalayout = "e-m:e-p270:32:32-p271:32:32-p272:64:64-i64:64-i128:128-f80:128-n8:16:32:64-S128"
target triple = "x86_64-pc-linux-gnu"

%"class.std::vector.8" = type { %"struct.std::_Vector_base.9" }
%"struct.std::_Vector_base.9" = type { %"struct.std::_Vector_base<int, std::allocator<int>>::_Vector_impl" }
%"struct.std::_Vector_base<int, std::allocator<int>>::_Vector_impl" = type { %"struct.std::_Vector_base<int, std::allocator<int>>::_Vector_impl_data" }
%"struct.std::_Vector_base<int, std::allocator<int>>::_Vector_impl_data" = type { ptr, ptr, ptr }
%"struct.Yosys::RTLIL::IdString" = type { i32 }
%"struct.Yosys::RTLIL::SigSpec" = type { i32, i32, %"class.std::vector.114", %"class.std::vector.119" }
%"class.std::vector.114" = type { %"struct.std::_Vector_base.115" }
%"struct.std::_Vector_base.115" = type { %"struct.std::_Vector_base<Yosys::RTLIL::SigChunk, std::allocator<Yosys::RTLIL::SigChunk>>::_Vector_impl" }
%"struct.std::_Vector_base<Yosys::RTLIL::SigChunk, std::allocator<Yosys::RTLIL::SigChunk>>::_Vector_impl" = type { %"struct.std::_Vector_base<Yosys::RTLIL::SigChunk, std::allocator<Yosys::RTLIL::SigChunk>>::_Vector_impl_data" }
%"struct.std::_Vector_base<Yosys::RTLIL::SigChunk, std::allocator<Yosys::RTLIL::SigChunk>>::_Vector_impl_data" = type { ptr, ptr, ptr }
%"class.std::vector.119" = type { %"struct.std::_Vector_base.120" }
%"struct.std::_Vector_base.120" = type { %"struct.std::_Vector_base<Yosys::RTLIL::SigBit, std::allocator<Yosys::RTLIL::SigBit>>::_Vector_impl" }
%"struct.std::_Vector_base<Yosys::RTLIL::SigBit, std::allocator<Yosys::RTLIL::SigBit>>::_Vector_impl" = type { %"struct.std::_Vector_base<Yosys::RTLIL::SigBit, std::allocator<Yosys::RTLIL::SigBit>>::_Vector_impl_data" }
%"struct.std::_Vector_base<Yosys::RTLIL::SigBit, std::allocator<Yosys::RTLIL::SigBit>>::_Vector_impl_data" = type { ptr, ptr, ptr }
%"class.Yosys::hashlib::dict.503" = type <{ %"class.std::vector.8", %"class.std::vector.504", [8 x i8] }>
%"class.std::vector.504" = type { %"struct.std::_Vector_base.505" }
%"struct.std::_Vector_base.505" = type { %"struct.std::_Vector_base<Yosys::hashlib::dict<Yosys::RTLIL::IdString, Yosys::RTLIL::SigSpec>::entry_t, std::allocator<Yosys::hashlib::dict<Yosys::RTLIL::IdString, Yosys::RTLIL::SigSpec>::entry_t>>::_Vector_impl" }
%"struct.std::_Vector_base<Yosys::hashlib::dict<Yosys::RTLIL::IdString, Yosys::RTLIL::SigSpec>::entry_t, std::allocator<Yosys::hashlib::dict<Yosys::RTLIL::IdString, Yosys::RTLIL::SigSpec>::entry_t>>::_Vector_impl" = type { %"struct.std::_Vector_base<Yosys::hashlib::dict<Yosys::RTLIL::IdString, Yosys::RTLIL::SigSpec>::entry_t, std::allocator<Yosys::hashlib::dict<Yosys::RTLIL::IdString, Yosys::RTLIL::SigSpec>::entry_t>>::_Vector_impl_data" }
%"struct.std::_Vector_base<Yosys::hashlib::dict<Yosys::RTLIL::IdString, Yosys::RTLIL::SigSpec>::entry_t, std::allocator<Yosys::hashlib::dict<Yosys::RTLIL::IdString, Yosys::RTLIL::SigSpec>::entry_t>>::_Vector_impl_data" = type { ptr, ptr, ptr }
%"class.Yosys::hashlib::dict<Yosys::RTLIL::IdString, Yosys::RTLIL::SigSpec>::const_iterator" = type <{ ptr, i32, [4 x i8] }>
%"struct.std::pair.512" = type { %"struct.Yosys::RTLIL::IdString", %"struct.Yosys::RTLIL::SigSpec" }
%"struct.Yosys::hashlib::dict<Yosys::RTLIL::IdString, Yosys::RTLIL::SigSpec>::entry_t" = type <{ %"struct.std::pair.512", i32, [4 x i8] }>

; Function Attrs: mustprogress nounwind uwtable
define linkonce_odr noundef nonnull align 8 dereferenceable(68) ptr @_ZNKSt6vectorIN5Yosys7hashlib4dictINS0_5RTLIL8IdStringENS3_7SigSpecENS1_8hash_opsIS4_EEE7entry_tESaIS9_EEixEm(ptr noundef nonnull align 8 dereferenceable(24) %0, i64 noundef %1) #6 comdat align 2 {
  %3 = alloca ptr, align 8
  %4 = alloca i64, align 8
  store ptr %0, ptr %3, align 8, !tbaa !948
  store i64 %1, ptr %4, align 8, !tbaa !23
  %5 = load ptr, ptr %3, align 8
  %6 = getelementptr inbounds nuw %"struct.std::_Vector_base.505", ptr %5, i32 0, i32 0
  %7 = getelementptr inbounds nuw %"struct.std::_Vector_base<Yosys::hashlib::dict<Yosys::RTLIL::IdString, Yosys::RTLIL::SigSpec>::entry_t, std::allocator<Yosys::hashlib::dict<Yosys::RTLIL::IdString, Yosys::RTLIL::SigSpec>::entry_t>>::_Vector_impl_data", ptr %6, i32 0, i32 0
  %8 = load ptr, ptr %7, align 8, !tbaa !953
  %9 = load i64, ptr %4, align 8, !tbaa !23
  %10 = getelementptr inbounds nuw %"struct.Yosys::hashlib::dict<Yosys::RTLIL::IdString, Yosys::RTLIL::SigSpec>::entry_t", ptr %8, i64 %9
  ret ptr %10
}

; Function Attrs: mustprogress nounwind uwtable
define linkonce_odr void @_ZN5Yosys7hashlib4dictINS_5RTLIL8IdStringENS2_7SigSpecENS0_8hash_opsIS3_EEE14const_iteratorC2EPKS7_i(ptr noundef nonnull align 8 dereferenceable(12) %0, ptr noundef %1, i32 noundef %2) unnamed_addr #6 comdat align 2 {
  %4 = alloca ptr, align 8
  %5 = alloca ptr, align 8
  %6 = alloca i32, align 4
  store ptr %0, ptr %4, align 8, !tbaa !941
  store ptr %1, ptr %5, align 8, !tbaa !903
  store i32 %2, ptr %6, align 4, !tbaa !238
  %7 = load ptr, ptr %4, align 8
  %8 = getelementptr inbounds nuw %"class.Yosys::hashlib::dict<Yosys::RTLIL::IdString, Yosys::RTLIL::SigSpec>::const_iterator", ptr %7, i32 0, i32 0
  %9 = load ptr, ptr %5, align 8, !tbaa !903
  store ptr %9, ptr %8, align 8, !tbaa !945
  %10 = getelementptr inbounds nuw %"class.Yosys::hashlib::dict<Yosys::RTLIL::IdString, Yosys::RTLIL::SigSpec>::const_iterator", ptr %7, i32 0, i32 1
  %11 = load i32, ptr %6, align 4, !tbaa !238
  store i32 %11, ptr %10, align 8, !tbaa !943
  ret void
}

; Function Attrs: mustprogress nounwind uwtable
define linkonce_odr noundef i64 @_ZNKSt6vectorIN5Yosys7hashlib4dictINS0_5RTLIL8IdStringENS3_7SigSpecENS1_8hash_opsIS4_EEE7entry_tESaIS9_EE4sizeEv(ptr noundef nonnull align 8 dereferenceable(24) %0) #6 comdat align 2 {
  %2 = alloca ptr, align 8
  store ptr %0, ptr %2, align 8, !tbaa !948
  %3 = load ptr, ptr %2, align 8
  %4 = getelementptr inbounds nuw %"struct.std::_Vector_base.505", ptr %3, i32 0, i32 0
  %5 = getelementptr inbounds nuw %"struct.std::_Vector_base<Yosys::hashlib::dict<Yosys::RTLIL::IdString, Yosys::RTLIL::SigSpec>::entry_t, std::allocator<Yosys::hashlib::dict<Yosys::RTLIL::IdString, Yosys::RTLIL::SigSpec>::entry_t>>::_Vector_impl_data", ptr %4, i32 0, i32 1
  %6 = load ptr, ptr %5, align 8, !tbaa !950
  %7 = getelementptr inbounds nuw %"struct.std::_Vector_base.505", ptr %3, i32 0, i32 0
  %8 = getelementptr inbounds nuw %"struct.std::_Vector_base<Yosys::hashlib::dict<Yosys::RTLIL::IdString, Yosys::RTLIL::SigSpec>::entry_t, std::allocator<Yosys::hashlib::dict<Yosys::RTLIL::IdString, Yosys::RTLIL::SigSpec>::entry_t>>::_Vector_impl_data", ptr %7, i32 0, i32 0
  %9 = load ptr, ptr %8, align 8, !tbaa !953
  %10 = ptrtoint ptr %6 to i64
  %11 = ptrtoint ptr %9 to i64
  %12 = sub i64 %10, %11
  %13 = sdiv exact i64 %12, 72
  ret i64 %13
}

; Function Attrs: mustprogress nounwind uwtable
define linkonce_odr { ptr, i32 } @_ZN5Yosys7hashlib4dictINS_5RTLIL8IdStringENS2_7SigSpecENS0_8hash_opsIS3_EEE14const_iteratorppEv(ptr noundef nonnull align 8 dereferenceable(12) %0) #6 comdat align 2 {
  %2 = alloca %"class.Yosys::hashlib::dict<Yosys::RTLIL::IdString, Yosys::RTLIL::SigSpec>::const_iterator", align 8
  %3 = alloca ptr, align 8
  store ptr %0, ptr %3, align 8, !tbaa !941
  %4 = load ptr, ptr %3, align 8
  %5 = getelementptr inbounds nuw %"class.Yosys::hashlib::dict<Yosys::RTLIL::IdString, Yosys::RTLIL::SigSpec>::const_iterator", ptr %4, i32 0, i32 1
  %6 = load i32, ptr %5, align 8, !tbaa !943
  %7 = add nsw i32 %6, -1
  store i32 %7, ptr %5, align 8, !tbaa !943
  call void @llvm.memcpy.p0.p0.i64(ptr align 8 %2, ptr align 8 %4, i64 16, i1 false), !tbaa.struct !947
  %8 = load { ptr, i32 }, ptr %2, align 8
  ret { ptr, i32 } %8
}

; Function Attrs: mustprogress nounwind uwtable
define linkonce_odr noundef nonnull align 8 dereferenceable(64) ptr @_ZNK5Yosys7hashlib4dictINS_5RTLIL8IdStringENS2_7SigSpecENS0_8hash_opsIS3_EEE14const_iteratordeEv(ptr noundef nonnull align 8 dereferenceable(12) %0) #6 comdat align 2 {
  %2 = alloca ptr, align 8
  store ptr %0, ptr %2, align 8, !tbaa !941
  %3 = load ptr, ptr %2, align 8
  %4 = getelementptr inbounds nuw %"class.Yosys::hashlib::dict<Yosys::RTLIL::IdString, Yosys::RTLIL::SigSpec>::const_iterator", ptr %3, i32 0, i32 0
  %5 = load ptr, ptr %4, align 8, !tbaa !945
  %6 = getelementptr inbounds nuw %"class.Yosys::hashlib::dict.503", ptr %5, i32 0, i32 1
  %7 = getelementptr inbounds nuw %"class.Yosys::hashlib::dict<Yosys::RTLIL::IdString, Yosys::RTLIL::SigSpec>::const_iterator", ptr %3, i32 0, i32 1
  %8 = load i32, ptr %7, align 8, !tbaa !943
  %9 = sext i32 %8 to i64
  %10 = call noundef nonnull align 8 dereferenceable(68) ptr @_ZNKSt6vectorIN5Yosys7hashlib4dictINS0_5RTLIL8IdStringENS3_7SigSpecENS1_8hash_opsIS4_EEE7entry_tESaIS9_EEixEm(ptr noundef nonnull align 8 dereferenceable(24) %6, i64 noundef %9) #3
  %11 = getelementptr inbounds nuw %"struct.Yosys::hashlib::dict<Yosys::RTLIL::IdString, Yosys::RTLIL::SigSpec>::entry_t", ptr %10, i32 0, i32 0
  ret ptr %11
}

; Function Attrs: mustprogress nounwind uwtable
define linkonce_odr noundef zeroext i1 @_ZNK5Yosys7hashlib4dictINS_5RTLIL8IdStringENS2_7SigSpecENS0_8hash_opsIS3_EEE14const_iteratorneERKS8_(ptr noundef nonnull align 8 dereferenceable(12) %0, ptr noundef nonnull align 8 dereferenceable(12) %1) #6 comdat align 2 {
  %3 = alloca ptr, align 8
  %4 = alloca ptr, align 8
  store ptr %0, ptr %3, align 8, !tbaa !941
  store ptr %1, ptr %4, align 8, !tbaa !941
  %5 = load ptr, ptr %3, align 8
  %6 = getelementptr inbounds nuw %"class.Yosys::hashlib::dict<Yosys::RTLIL::IdString, Yosys::RTLIL::SigSpec>::const_iterator", ptr %5, i32 0, i32 1
  %7 = load i32, ptr %6, align 8, !tbaa !943
  %8 = load ptr, ptr %4, align 8, !tbaa !941
  %9 = getelementptr inbounds nuw %"class.Yosys::hashlib::dict<Yosys::RTLIL::IdString, Yosys::RTLIL::SigSpec>::const_iterator", ptr %8, i32 0, i32 1
  %10 = load i32, ptr %9, align 8, !tbaa !943
  %11 = icmp ne i32 %7, %10
  ret i1 %11
}

; Function Attrs: mustprogress uwtable
define linkonce_odr { ptr, i32 } @_ZNK5Yosys7hashlib4dictINS_5RTLIL8IdStringENS2_7SigSpecENS0_8hash_opsIS3_EEE3endEv(ptr noundef nonnull align 8 dereferenceable(49) %0) #4 comdat align 2 {
  %2 = alloca %"class.Yosys::hashlib::dict<Yosys::RTLIL::IdString, Yosys::RTLIL::SigSpec>::const_iterator", align 8
  %3 = alloca ptr, align 8
  store ptr %0, ptr %3, align 8, !tbaa !903
  call void @_ZN5Yosys7hashlib4dictINS_5RTLIL8IdStringENS2_7SigSpecENS0_8hash_opsIS3_EEE14const_iteratorC2EPKS7_i(ptr noundef nonnull align 8 dereferenceable(12) %2, ptr noundef null, i32 noundef -1)
  %4 = load { ptr, i32 }, ptr %2, align 8
  ret { ptr, i32 } %4
}

; Function Attrs: mustprogress uwtable
define linkonce_odr { ptr, i32 } @_ZNK5Yosys7hashlib4dictINS_5RTLIL8IdStringENS2_7SigSpecENS0_8hash_opsIS3_EEE5beginEv(ptr noundef nonnull align 8 dereferenceable(49) %0) #4 comdat align 2 {
  %2 = alloca %"class.Yosys::hashlib::dict<Yosys::RTLIL::IdString, Yosys::RTLIL::SigSpec>::const_iterator", align 8
  %3 = alloca ptr, align 8
  store ptr %0, ptr %3, align 8, !tbaa !903
  %4 = load ptr, ptr %3, align 8
  %5 = getelementptr inbounds nuw %"class.Yosys::hashlib::dict.503", ptr %4, i32 0, i32 1
  %6 = call noundef i64 @_ZNKSt6vectorIN5Yosys7hashlib4dictINS0_5RTLIL8IdStringENS3_7SigSpecENS1_8hash_opsIS4_EEE7entry_tESaIS9_EE4sizeEv(ptr noundef nonnull align 8 dereferenceable(24) %5) #3
  %7 = trunc i64 %6 to i32
  %8 = sub nsw i32 %7, 1
  call void @_ZN5Yosys7hashlib4dictINS_5RTLIL8IdStringENS2_7SigSpecENS0_8hash_opsIS3_EEE14const_iteratorC2EPKS7_i(ptr noundef nonnull align 8 dereferenceable(12) %2, ptr noundef %4, i32 noundef %8)
  %9 = load { ptr, i32 }, ptr %2, align 8
  ret { ptr, i32 } %9
}

; Function Attrs: mustprogress uwtable
define internal noundef zeroext i1 @_ZN12_GLOBAL__N_111XpropWorker14inputs_maybe_xEPN5Yosys5RTLIL4CellE(ptr noundef nonnull align 8 dereferenceable(832) %0, ptr noundef %1) #4 align 2 {
  %3 = alloca i1, align 1
  %4 = alloca ptr, align 8
  %5 = alloca ptr, align 8
  %6 = alloca ptr, align 8
  %7 = alloca %"class.Yosys::hashlib::dict<Yosys::RTLIL::IdString, Yosys::RTLIL::SigSpec>::const_iterator", align 8
  %8 = alloca { ptr, i32 }, align 8
  %9 = alloca %"class.Yosys::hashlib::dict<Yosys::RTLIL::IdString, Yosys::RTLIL::SigSpec>::const_iterator", align 8
  %10 = alloca { ptr, i32 }, align 8
  %11 = alloca i32, align 4
  %12 = alloca ptr, align 8
  %13 = alloca %"class.Yosys::hashlib::dict<Yosys::RTLIL::IdString, Yosys::RTLIL::SigSpec>::const_iterator", align 8
  store ptr %0, ptr %4, align 8, !tbaa !171
  store ptr %1, ptr %5, align 8, !tbaa !237
  %14 = load ptr, ptr %4, align 8
  call void @llvm.lifetime.start.p0(i64 8, ptr %6) #3
  %15 = load ptr, ptr %5, align 8, !tbaa !237
  %16 = call noundef nonnull align 8 dereferenceable(49) ptr @_ZNK5Yosys5RTLIL4Cell11connectionsEv(ptr noundef nonnull align 8 dereferenceable(192) %15)
  store ptr %16, ptr %6, align 8, !tbaa !903
  call void @llvm.lifetime.start.p0(i64 16, ptr %7) #3
  %17 = load ptr, ptr %6, align 8, !tbaa !903
  %18 = call { ptr, i32 } @_ZNK5Yosys7hashlib4dictINS_5RTLIL8IdStringENS2_7SigSpecENS0_8hash_opsIS3_EEE5beginEv(ptr noundef nonnull align 8 dereferenceable(49) %17)
  store { ptr, i32 } %18, ptr %8, align 8
  call void @llvm.memcpy.p0.p0.i64(ptr align 8 %7, ptr align 8 %8, i64 12, i1 false)
  call void @llvm.lifetime.start.p0(i64 16, ptr %9) #3
  %19 = load ptr, ptr %6, align 8, !tbaa !903
  %20 = call { ptr, i32 } @_ZNK5Yosys7hashlib4dictINS_5RTLIL8IdStringENS2_7SigSpecENS0_8hash_opsIS3_EEE3endEv(ptr noundef nonnull align 8 dereferenceable(49) %19)
  store { ptr, i32 } %20, ptr %10, align 8
  call void @llvm.memcpy.p0.p0.i64(ptr align 8 %9, ptr align 8 %10, i64 12, i1 false)
  br label %21

21:                                               ; preds = %39, %2
  %22 = call noundef zeroext i1 @_ZNK5Yosys7hashlib4dictINS_5RTLIL8IdStringENS2_7SigSpecENS0_8hash_opsIS3_EEE14const_iteratorneERKS8_(ptr noundef nonnull align 8 dereferenceable(12) %7, ptr noundef nonnull align 8 dereferenceable(12) %9)
  br i1 %22, label %24, label %23

23:                                               ; preds = %21
  store i32 2, ptr %11, align 4
  br label %45

24:                                               ; preds = %21
  call void @llvm.lifetime.start.p0(i64 8, ptr %12) #3
  %25 = call noundef nonnull align 8 dereferenceable(64) ptr @_ZNK5Yosys7hashlib4dictINS_5RTLIL8IdStringENS2_7SigSpecENS0_8hash_opsIS3_EEE14const_iteratordeEv(ptr noundef nonnull align 8 dereferenceable(12) %7)
  store ptr %25, ptr %12, align 8, !tbaa !905
  %26 = load ptr, ptr %5, align 8, !tbaa !237
  %27 = load ptr, ptr %12, align 8, !tbaa !905
  %28 = getelementptr inbounds nuw %"struct.std::pair.512", ptr %27, i32 0, i32 0
  %29 = call noundef zeroext i1 @_ZNK5Yosys5RTLIL4Cell5inputERKNS0_8IdStringE(ptr noundef nonnull align 8 dereferenceable(192) %26, ptr noundef nonnull align 4 dereferenceable(4) %28)
  br i1 %29, label %30, label %35

30:                                               ; preds = %24
  %31 = load ptr, ptr %12, align 8, !tbaa !905
  %32 = getelementptr inbounds nuw %"struct.std::pair.512", ptr %31, i32 0, i32 1
  %33 = call noundef zeroext i1 @_ZN12_GLOBAL__N_111XpropWorker7maybe_xERKN5Yosys5RTLIL7SigSpecE(ptr noundef nonnull align 8 dereferenceable(832) %14, ptr noundef nonnull align 8 dereferenceable(56) %32)
  br i1 %33, label %34, label %35

34:                                               ; preds = %30
  store i1 true, ptr %3, align 1
  store i32 1, ptr %11, align 4
  br label %36

35:                                               ; preds = %30, %24
  store i32 0, ptr %11, align 4
  br label %36

36:                                               ; preds = %35, %34
  call void @llvm.lifetime.end.p0(i64 8, ptr %12) #3
  %37 = load i32, ptr %11, align 4
  switch i32 %37, label %45 [
    i32 0, label %38
  ]

38:                                               ; preds = %36
  br label %39

39:                                               ; preds = %38
  %40 = call { ptr, i32 } @_ZN5Yosys7hashlib4dictINS_5RTLIL8IdStringENS2_7SigSpecENS0_8hash_opsIS3_EEE14const_iteratorppEv(ptr noundef nonnull align 8 dereferenceable(12) %7)
  %41 = getelementptr inbounds nuw { ptr, i32 }, ptr %13, i32 0, i32 0
  %42 = extractvalue { ptr, i32 } %40, 0
  store ptr %42, ptr %41, align 8
  %43 = getelementptr inbounds nuw { ptr, i32 }, ptr %13, i32 0, i32 1
  %44 = extractvalue { ptr, i32 } %40, 1
  store i32 %44, ptr %43, align 8
  br label %21

45:                                               ; preds = %36, %23
  call void @llvm.lifetime.end.p0(i64 16, ptr %9) #3
  call void @llvm.lifetime.end.p0(i64 16, ptr %7) #3
  call void @llvm.lifetime.end.p0(i64 8, ptr %6) #3
  %46 = load i32, ptr %11, align 4
  switch i32 %46, label %50 [
    i32 2, label %47
    i32 1, label %48
  ]

47:                                               ; preds = %45
  store i1 false, ptr %3, align 1
  br label %48

48:                                               ; preds = %47, %45
  %49 = load i1, ptr %3, align 1
  ret i1 %49

50:                                               ; preds = %45
  unreachable
}