; Function Attrs: mustprogress uwtable
define internal fastcc noundef zeroext i1 @_ZN12_GLOBAL__N_111XpropWorker14inputs_maybe_xEPN5Yosys5RTLIL4CellE(ptr noundef nonnull align 8 dereferenceable(832) %0, ptr noundef nonnull %1) unnamed_addr #4 align 2 {
  %3 = tail call noundef nonnull align 8 dereferenceable(49) ptr @_ZNK5Yosys5RTLIL4Cell11connectionsEv(ptr noundef nonnull align 8 dereferenceable(192) %1)
  %4 = getelementptr inbounds nuw i8, ptr %3, i64 24
  %5 = getelementptr inbounds nuw i8, ptr %3, i64 32
  %6 = load ptr, ptr %5, align 8, !tbaa !902
  %7 = load ptr, ptr %4, align 8, !tbaa !905
  %8 = ptrtoint ptr %6 to i64
  %9 = ptrtoint ptr %7 to i64
  %10 = sub i64 %8, %9
  %11 = sdiv exact i64 %10, 72
  %12 = and i64 %11, 4294967295
  %.not23.not = icmp eq i64 %12, 0
  br i1 %.not23.not, label %._crit_edge, label %.lr.ph.preheader

.lr.ph.preheader:                                 ; preds = %2
  %sext = shl i64 %11, 32
  %13 = ashr exact i64 %sext, 32
  br label %.lr.ph

.lr.ph:                                           ; preds = %.lr.ph.preheader, %.critedge
  %indvars.iv = phi i64 [ %13, %.lr.ph.preheader ], [ %indvars.iv.next, %.critedge ]
  %indvars.iv.next = add nsw i64 %indvars.iv, -1
  %14 = load ptr, ptr %4, align 8, !tbaa !905
  %15 = getelementptr inbounds nuw %"struct.Yosys::hashlib::dict<Yosys::RTLIL::IdString, Yosys::RTLIL::SigSpec>::entry_t", ptr %14, i64 %indvars.iv.next
  %16 = tail call noundef zeroext i1 @_ZNK5Yosys5RTLIL4Cell5inputERKNS0_8IdStringE(ptr noundef nonnull align 8 dereferenceable(192) %1, ptr noundef nonnull align 4 dereferenceable(4) %15)
  br i1 %16, label %17, label %.critedge

17:                                               ; preds = %.lr.ph
  %18 = getelementptr inbounds nuw i8, ptr %15, i64 8
  %19 = tail call fastcc noundef zeroext i1 @_ZN12_GLOBAL__N_111XpropWorker7maybe_xERKN5Yosys5RTLIL7SigSpecE(ptr noundef nonnull align 8 dereferenceable(832) %0, ptr noundef nonnull align 8 dereferenceable(56) %18)
  br i1 %19, label %._crit_edge, label %.critedge

.critedge:                                        ; preds = %17, %.lr.ph
  %.not.not = icmp eq i64 %indvars.iv.next, 0
  br i1 %.not.not, label %._crit_edge, label %.lr.ph

._crit_edge:                                      ; preds = %.critedge, %17, %2
  %.not.lcssa = phi i1 [ false, %2 ], [ true, %17 ], [ false, %.critedge ]
  ret i1 %.not.lcssa
}